target datalayout = "e-m:e-p270:32:32-p271:32:32-p272:64:64-i64:64-i128:128-f80:128-n8:16:32:64-S128"
target triple = "x86_64-unknown-linux-gnu"

%"class.icu_75::RuleBasedCollator" = type <{ %"class.icu_75::Collator", ptr, ptr, ptr, ptr, %"class.icu_75::Locale", i32, i8, [3 x i8] }>
%"class.icu_75::Collator" = type { %"class.icu_75::UObject" }
%"class.icu_75::UObject" = type { ptr }
%"class.icu_75::Locale" = type <{ %"class.icu_75::UObject", [12 x i8], [6 x i8], [4 x i8], [2 x i8], i32, [4 x i8], ptr, [157 x i8], [3 x i8], ptr, i8, [7 x i8] }>
%"class.icu_75::LocalPointer.2" = type { %"class.icu_75::LocalPointerBase.3" }
%"class.icu_75::LocalPointerBase.3" = type { ptr }
%"struct.icu_75::CollationData" = type <{ ptr, ptr, ptr, ptr, ptr, ptr, ptr, i32, i32, i32, i32, ptr, ptr, ptr, i32, i32, ptr, ptr, i32, [4 x i8], ptr, i32, [4 x i8] }>
%"class.icu_75::UnicodeSetIterator" = type { %"class.icu_75::UObject", i32, i32, ptr, ptr, i32, i32, i32, i32, i32, i32, ptr }
%struct.UTrie2 = type { ptr, ptr, ptr, i32, i32, i16, i16, i32, i32, i32, i32, ptr, i32, i8, i8, i16, ptr }

; Function Attrs: mustprogress nounwind uwtable
define linkonce_odr void @_ZN6icu_7516LocalPointerBaseINS_10UnicodeSetEEC2EPS1_(ptr noundef nonnull align 8 dereferenceable(8) %this, ptr noundef %p) unnamed_addr #0 comdat align 2 {
entry:
  %this.addr = alloca ptr, align 8
  %p.addr = alloca ptr, align 8
  store ptr %this, ptr %this.addr, align 8
  store ptr %p, ptr %p.addr, align 8
  %this1 = load ptr, ptr %this.addr, align 8
  %ptr = getelementptr inbounds %"class.icu_75::LocalPointerBase.3", ptr %this1, i32 0, i32 0
  %0 = load ptr, ptr %p.addr, align 8
  store ptr %0, ptr %ptr, align 8
  ret void
}

; Function Attrs: mustprogress nounwind uwtable
define linkonce_odr noundef i32 @_ZNK6icu_7513CollationData7getCE32Ei(ptr noundef nonnull align 8 dereferenceable(140) %this, i32 noundef %c) #0 comdat align 2 {
entry:
  %this.addr = alloca ptr, align 8
  %c.addr = alloca i32, align 4
  store ptr %this, ptr %this.addr, align 8
  store i32 %c, ptr %c.addr, align 4
  %this1 = load ptr, ptr %this.addr, align 8
  %trie = getelementptr inbounds %"struct.icu_75::CollationData", ptr %this1, i32 0, i32 0
  %0 = load ptr, ptr %trie, align 8
  %data32 = getelementptr inbounds %struct.UTrie2, ptr %0, i32 0, i32 2
  %1 = load ptr, ptr %data32, align 8
  %2 = load i32, ptr %c.addr, align 4
  %cmp = icmp ult i32 %2, 55296
  br i1 %cmp, label %cond.true, label %cond.false

cond.true:                                        ; preds = %entry
  %trie2 = getelementptr inbounds %"struct.icu_75::CollationData", ptr %this1, i32 0, i32 0
  %3 = load ptr, ptr %trie2, align 8
  %index = getelementptr inbounds %struct.UTrie2, ptr %3, i32 0, i32 0
  %4 = load ptr, ptr %index, align 8
  %5 = load i32, ptr %c.addr, align 4
  %shr = ashr i32 %5, 5
  %add = add nsw i32 0, %shr
  %idxprom = sext i32 %add to i64
  %arrayidx = getelementptr inbounds i16, ptr %4, i64 %idxprom
  %6 = load i16, ptr %arrayidx, align 2
  %conv = zext i16 %6 to i32
  %shl = shl i32 %conv, 2
  %7 = load i32, ptr %c.addr, align 4
  %and = and i32 %7, 31
  %add3 = add nsw i32 %shl, %and
  br label %cond.end49

cond.false:                                       ; preds = %entry
  %8 = load i32, ptr %c.addr, align 4
  %cmp4 = icmp ule i32 %8, 65535
  br i1 %cmp4, label %cond.true5, label %cond.false17

cond.true5:                                       ; preds = %cond.false
  %trie6 = getelementptr inbounds %"struct.icu_75::CollationData", ptr %this1, i32 0, i32 0
  %9 = load ptr, ptr %trie6, align 8
  %index7 = getelementptr inbounds %struct.UTrie2, ptr %9, i32 0, i32 0
  %10 = load ptr, ptr %index7, align 8
  %11 = load i32, ptr %c.addr, align 4
  %cmp8 = icmp sle i32 %11, 56319
  %cond = select i1 %cmp8, i32 320, i32 0
  %12 = load i32, ptr %c.addr, align 4
  %shr9 = ashr i32 %12, 5
  %add10 = add nsw i32 %cond, %shr9
  %idxprom11 = sext i32 %add10 to i64
  %arrayidx12 = getelementptr inbounds i16, ptr %10, i64 %idxprom11
  %13 = load i16, ptr %arrayidx12, align 2
  %conv13 = zext i16 %13 to i32
  %shl14 = shl i32 %conv13, 2
  %14 = load i32, ptr %c.addr, align 4
  %and15 = and i32 %14, 31
  %add16 = add nsw i32 %shl14, %and15
  br label %cond.end47

cond.false17:                                     ; preds = %cond.false
  %15 = load i32, ptr %c.addr, align 4
  %cmp18 = icmp ugt i32 %15, 1114111
  br i1 %cmp18, label %cond.true19, label %cond.false20

cond.true19:                                      ; preds = %cond.false17
  br label %cond.end45

cond.false20:                                     ; preds = %cond.false17
  %16 = load i32, ptr %c.addr, align 4
  %trie21 = getelementptr inbounds %"struct.icu_75::CollationData", ptr %this1, i32 0, i32 0
  %17 = load ptr, ptr %trie21, align 8
  %highStart = getelementptr inbounds %struct.UTrie2, ptr %17, i32 0, i32 9
  %18 = load i32, ptr %highStart, align 4
  %cmp22 = icmp sge i32 %16, %18
  br i1 %cmp22, label %cond.true23, label %cond.false25

cond.true23:                                      ; preds = %cond.false20
  %trie24 = getelementptr inbounds %"struct.icu_75::CollationData", ptr %this1, i32 0, i32 0
  %19 = load ptr, ptr %trie24, align 8
  %highValueIndex = getelementptr inbounds %struct.UTrie2, ptr %19, i32 0, i32 10
  %20 = load i32, ptr %highValueIndex, align 8
  br label %cond.end

cond.false25:                                     ; preds = %cond.false20
  %trie26 = getelementptr inbounds %"struct.icu_75::CollationData", ptr %this1, i32 0, i32 0
  %21 = load ptr, ptr %trie26, align 8
  %index27 = getelementptr inbounds %struct.UTrie2, ptr %21, i32 0, i32 0
  %22 = load ptr, ptr %index27, align 8
  %trie28 = getelementptr inbounds %"struct.icu_75::CollationData", ptr %this1, i32 0, i32 0
  %23 = load ptr, ptr %trie28, align 8
  %index29 = getelementptr inbounds %struct.UTrie2, ptr %23, i32 0, i32 0
  %24 = load ptr, ptr %index29, align 8
  %25 = load i32, ptr %c.addr, align 4
  %shr30 = ashr i32 %25, 11
  %add31 = add nsw i32 2080, %shr30
  %idxprom32 = sext i32 %add31 to i64
  %arrayidx33 = getelementptr inbounds i16, ptr %24, i64 %idxprom32
  %26 = load i16, ptr %arrayidx33, align 2
  %conv34 = zext i16 %26 to i32
  %27 = load i32, ptr %c.addr, align 4
  %shr35 = ashr i32 %27, 5
  %and36 = and i32 %shr35, 63
  %add37 = add nsw i32 %conv34, %and36
  %idxprom38 = sext i32 %add37 to i64
  %arrayidx39 = getelementptr inbounds i16, ptr %22, i64 %idxprom38
  %28 = load i16, ptr %arrayidx39, align 2
  %conv40 = zext i16 %28 to i32
  %shl41 = shl i32 %conv40, 2
  %29 = load i32, ptr %c.addr, align 4
  %and42 = and i32 %29, 31
  %add43 = add nsw i32 %shl41, %and42
  br label %cond.end

cond.end:                                         ; preds = %cond.false25, %cond.true23
  %cond44 = phi i32 [ %20, %cond.true23 ], [ %add43, %cond.false25 ]
  br label %cond.end45

cond.end45:                                       ; preds = %cond.end, %cond.true19
  %cond46 = phi i32 [ 128, %cond.true19 ], [ %cond44, %cond.end ]
  br label %cond.end47

cond.end47:                                       ; preds = %cond.end45, %cond.true5
  %cond48 = phi i32 [ %add16, %cond.true5 ], [ %cond46, %cond.end45 ]
  br label %cond.end49

cond.end49:                                       ; preds = %cond.end47, %cond.true
  %cond50 = phi i32 [ %add3, %cond.true ], [ %cond48, %cond.end47 ]
  %idxprom51 = sext i32 %cond50 to i64
  %arrayidx52 = getelementptr inbounds i32, ptr %1, i64 %idxprom51
  %30 = load i32, ptr %arrayidx52, align 4
  ret i32 %30
}

; Function Attrs: mustprogress nounwind uwtable
define linkonce_odr noundef i32 @_ZNK6icu_7518UnicodeSetIterator12getCodepointEv(ptr noundef nonnull align 8 dereferenceable(64) %this) #0 comdat align 2 {
entry:
  %this.addr = alloca ptr, align 8
  store ptr %this, ptr %this.addr, align 8
  %this1 = load ptr, ptr %this.addr, align 8
  %codepoint = getelementptr inbounds %"class.icu_75::UnicodeSetIterator", ptr %this1, i32 0, i32 1
  %0 = load i32, ptr %codepoint, align 8
  ret i32 %0
}

; Function Attrs: mustprogress nounwind uwtable
define linkonce_odr noundef signext i8 @_ZNK6icu_7518UnicodeSetIterator8isStringEv(ptr noundef nonnull align 8 dereferenceable(64) %this) #0 comdat align 2 {
entry:
  %this.addr = alloca ptr, align 8
  store ptr %this, ptr %this.addr, align 8
  %this1 = load ptr, ptr %this.addr, align 8
  %codepoint = getelementptr inbounds %"class.icu_75::UnicodeSetIterator", ptr %this1, i32 0, i32 1
  %0 = load i32, ptr %codepoint, align 8
  %cmp = icmp slt i32 %0, 0
  %conv = zext i1 %cmp to i8
  ret i8 %conv
}

; Function Attrs: mustprogress nounwind uwtable
define linkonce_odr noundef nonnull align 8 dereferenceable(200) ptr @_ZNK6icu_7516LocalPointerBaseINS_10UnicodeSetEEdeEv(ptr noundef nonnull align 8 dereferenceable(8) %this) #0 comdat align 2 {
entry:
  %this.addr = alloca ptr, align 8
  store ptr %this, ptr %this.addr, align 8
  %this1 = load ptr, ptr %this.addr, align 8
  %ptr = getelementptr inbounds %"class.icu_75::LocalPointerBase.3", ptr %this1, i32 0, i32 0
  %0 = load ptr, ptr %ptr, align 8
  ret ptr %0
}

; Function Attrs: mustprogress nounwind uwtable
define internal noundef signext i8 @_ZL9U_FAILURE10UErrorCode(i32 noundef %code) #0 {
entry:
  %code.addr = alloca i32, align 4
  store i32 %code, ptr %code.addr, align 4
  %0 = load i32, ptr %code.addr, align 4
  %cmp = icmp sgt i32 %0, 0
  %conv = zext i1 %cmp to i8
  ret i8 %conv
}

; Function Attrs: mustprogress uwtable
define linkonce_odr void @_ZN6icu_7512LocalPointerINS_10UnicodeSetEEC2EPS1_(ptr noundef nonnull align 8 dereferenceable(8) %this, ptr noundef %p) unnamed_addr #1 comdat align 2 {
entry:
  %this.addr = alloca ptr, align 8
  %p.addr = alloca ptr, align 8
  store ptr %this, ptr %this.addr, align 8
  store ptr %p, ptr %p.addr, align 8
  %this1 = load ptr, ptr %this.addr, align 8
  %0 = load ptr, ptr %p.addr, align 8
  call void @_ZN6icu_7516LocalPointerBaseINS_10UnicodeSetEEC2EPS1_(ptr noundef nonnull align 8 dereferenceable(8) %this1, ptr noundef %0)
  ret void
}

; Function Attrs: mustprogress uwtable
define noundef i32 @_ZNK6icu_7517RuleBasedCollator8hashCodeEv(ptr noundef nonnull align 8 dereferenceable(272) %this) unnamed_addr #1 align 2 personality ptr @__gxx_personality_v0 {
entry:
  %retval = alloca i32, align 4
  %this.addr = alloca ptr, align 8
  %h = alloca i32, align 4
  %errorCode = alloca i32, align 4
  %set = alloca %"class.icu_75::LocalPointer.2", align 8
  %exn.slot = alloca ptr, align 8
  %ehselector.slot = alloca i32, align 4
  %cleanup.dest.slot = alloca i32, align 4
  %iter = alloca %"class.icu_75::UnicodeSetIterator", align 8
  store ptr %this, ptr %this.addr, align 8
  %this1 = load ptr, ptr %this.addr, align 8
  %settings = getelementptr inbounds %"class.icu_75::RuleBasedCollator", ptr %this1, i32 0, i32 2
  %0 = load ptr, ptr %settings, align 8
  %call = call noundef i32 @_ZNK6icu_7517CollationSettings8hashCodeEv(ptr noundef nonnull align 8 dereferenceable(852) %0)
  store i32 %call, ptr %h, align 4
  %data = getelementptr inbounds %"class.icu_75::RuleBasedCollator", ptr %this1, i32 0, i32 1
  %1 = load ptr, ptr %data, align 8
  %base = getelementptr inbounds %"struct.icu_75::CollationData", ptr %1, i32 0, i32 4
  %2 = load ptr, ptr %base, align 8
  %cmp = icmp eq ptr %2, null
  br i1 %cmp, label %if.then, label %if.end

if.then:                                          ; preds = %entry
  %3 = load i32, ptr %h, align 4
  store i32 %3, ptr %retval, align 4
  br label %return

if.end:                                           ; preds = %entry
  store i32 0, ptr %errorCode, align 4
  %call2 = call noundef ptr @_ZNK6icu_7517RuleBasedCollator14getTailoredSetER10UErrorCode(ptr noundef nonnull align 8 dereferenceable(272) %this1, ptr noundef nonnull align 4 dereferenceable(4) %errorCode)
  call void @_ZN6icu_7512LocalPointerINS_10UnicodeSetEEC2EPS1_(ptr noundef nonnull align 8 dereferenceable(8) %set, ptr noundef %call2)
  %4 = load i32, ptr %errorCode, align 4
  %call3 = invoke noundef signext i8 @_ZL9U_FAILURE10UErrorCode(i32 noundef %4)
          to label %invoke.cont unwind label %lpad

invoke.cont:                                      ; preds = %if.end
  %tobool = icmp ne i8 %call3, 0
  br i1 %tobool, label %if.then4, label %if.end5

if.then4:                                         ; preds = %invoke.cont
  store i32 0, ptr %retval, align 4
  store i32 1, ptr %cleanup.dest.slot, align 4
  br label %cleanup

lpad:                                             ; preds = %invoke.cont6, %if.end5, %if.end
  %5 = landingpad { ptr, i32 }
          cleanup
  %6 = extractvalue { ptr, i32 } %5, 0
  store ptr %6, ptr %exn.slot, align 8
  %7 = extractvalue { ptr, i32 } %5, 1
  store i32 %7, ptr %ehselector.slot, align 4
  br label %ehcleanup

if.end5:                                          ; preds = %invoke.cont
  %call7 = invoke noundef nonnull align 8 dereferenceable(200) ptr @_ZNK6icu_7516LocalPointerBaseINS_10UnicodeSetEEdeEv(ptr noundef nonnull align 8 dereferenceable(8) %set)
          to label %invoke.cont6 unwind label %lpad

invoke.cont6:                                     ; preds = %if.end5
  invoke void @_ZN6icu_7518UnicodeSetIteratorC1ERKNS_10UnicodeSetE(ptr noundef nonnull align 8 dereferenceable(64) %iter, ptr noundef nonnull align 8 dereferenceable(200) %call7)
          to label %invoke.cont8 unwind label %lpad

invoke.cont8:                                     ; preds = %invoke.cont6
  br label %while.cond

while.cond:                                       ; preds = %invoke.cont19, %invoke.cont8
  %call11 = invoke noundef signext i8 @_ZN6icu_7518UnicodeSetIterator4nextEv(ptr noundef nonnull align 8 dereferenceable(64) %iter)
          to label %invoke.cont10 unwind label %lpad9

invoke.cont10:                                    ; preds = %while.cond
  %tobool12 = icmp ne i8 %call11, 0
  br i1 %tobool12, label %land.rhs, label %land.end

land.rhs:                                         ; preds = %invoke.cont10
  %call14 = invoke noundef signext i8 @_ZNK6icu_7518UnicodeSetIterator8isStringEv(ptr noundef nonnull align 8 dereferenceable(64) %iter)
          to label %invoke.cont13 unwind label %lpad9

invoke.cont13:                                    ; preds = %land.rhs
  %tobool15 = icmp ne i8 %call14, 0
  %lnot = xor i1 %tobool15, true
  br label %land.end

land.end:                                         ; preds = %invoke.cont13, %invoke.cont10
  %8 = phi i1 [ false, %invoke.cont10 ], [ %lnot, %invoke.cont13 ]
  br i1 %8, label %while.body, label %while.end

while.body:                                       ; preds = %land.end
  %data16 = getelementptr inbounds %"class.icu_75::RuleBasedCollator", ptr %this1, i32 0, i32 1
  %9 = load ptr, ptr %data16, align 8
  %call18 = invoke noundef i32 @_ZNK6icu_7518UnicodeSetIterator12getCodepointEv(ptr noundef nonnull align 8 dereferenceable(64) %iter)
          to label %invoke.cont17 unwind label %lpad9

invoke.cont17:                                    ; preds = %while.body
  %call20 = invoke noundef i32 @_ZNK6icu_7513CollationData7getCE32Ei(ptr noundef nonnull align 8 dereferenceable(140) %9, i32 noundef %call18)
          to label %invoke.cont19 unwind label %lpad9

invoke.cont19:                                    ; preds = %invoke.cont17
  %10 = load i32, ptr %h, align 4
  %xor = xor i32 %10, %call20
  store i32 %xor, ptr %h, align 4
  br label %while.cond, !llvm.loop !4

lpad9:                                            ; preds = %invoke.cont17, %while.body, %land.rhs, %while.cond
  %11 = landingpad { ptr, i32 }
          cleanup
  %12 = extractvalue { ptr, i32 } %11, 0
  store ptr %12, ptr %exn.slot, align 8
  %13 = extractvalue { ptr, i32 } %11, 1
  store i32 %13, ptr %ehselector.slot, align 4
  call void @_ZN6icu_7518UnicodeSetIteratorD1Ev(ptr noundef nonnull align 8 dereferenceable(64) %iter) #10
  br label %ehcleanup

while.end:                                        ; preds = %land.end
  %14 = load i32, ptr %h, align 4
  store i32 %14, ptr %retval, align 4
  store i32 1, ptr %cleanup.dest.slot, align 4
  call void @_ZN6icu_7518UnicodeSetIteratorD1Ev(ptr noundef nonnull align 8 dereferenceable(64) %iter) #10
  br label %cleanup

cleanup:                                          ; preds = %while.end, %if.then4
  call void @_ZN6icu_7512LocalPointerINS_10UnicodeSetEED2Ev(ptr noundef nonnull align 8 dereferenceable(8) %set) #10
  br label %return

ehcleanup:                                        ; preds = %lpad9, %lpad
  call void @_ZN6icu_7512LocalPointerINS_10UnicodeSetEED2Ev(ptr noundef nonnull align 8 dereferenceable(8) %set) #10
  br label %eh.resume

return:                                           ; preds = %cleanup, %if.then
  %15 = load i32, ptr %retval, align 4
  ret i32 %15

eh.resume:                                        ; preds = %ehcleanup
  %exn = load ptr, ptr %exn.slot, align 8
  %sel = load i32, ptr %ehselector.slot, align 4
  %lpad.val = insertvalue { ptr, i32 } poison, ptr %exn, 0
  %lpad.val21 = insertvalue { ptr, i32 } %lpad.val, i32 %sel, 1
  resume { ptr, i32 } %lpad.val21
}