; Function Attrs: mustprogress uwtable
define noundef i32 @_ZNK6icu_7517RuleBasedCollator8hashCodeEv(ptr nocapture noundef nonnull readonly align 8 dereferenceable(272) %this) unnamed_addr #1 align 2 personality ptr @__gxx_personality_v0 {
entry:
  %errorCode = alloca i32, align 4
  %set = alloca %"class.icu_75::LocalPointer.2", align 8
  %iter = alloca %"class.icu_75::UnicodeSetIterator", align 8
  %settings = getelementptr inbounds i8, ptr %this, i64 16
  %0 = load ptr, ptr %settings, align 8
  %call = tail call noundef i32 @_ZNK6icu_7517CollationSettings8hashCodeEv(ptr noundef nonnull align 8 dereferenceable(852) %0)
  %data = getelementptr inbounds i8, ptr %this, i64 8
  %1 = load ptr, ptr %data, align 8
  %base = getelementptr inbounds i8, ptr %1, i64 32
  %2 = load ptr, ptr %base, align 8
  %cmp = icmp eq ptr %2, null
  br i1 %cmp, label %return, label %if.end

if.end:                                           ; preds = %entry
  store i32 0, ptr %errorCode, align 4
  %call2 = call noundef ptr @_ZNK6icu_7517RuleBasedCollator14getTailoredSetER10UErrorCode(ptr noundef nonnull align 8 dereferenceable(272) %this, ptr noundef nonnull align 4 dereferenceable(4) %errorCode)
  store ptr %call2, ptr %set, align 8
  %3 = load i32, ptr %errorCode, align 4
  %cmp.i = icmp slt i32 %3, 1
  br i1 %cmp.i, label %if.end5, label %cleanup

lpad:                                             ; preds = %if.end5
  %4 = landingpad { ptr, i32 }
          cleanup
  br label %ehcleanup

if.end5:                                          ; preds = %if.end
  invoke void @_ZN6icu_7518UnicodeSetIteratorC1ERKNS_10UnicodeSetE(ptr noundef nonnull align 8 dereferenceable(64) %iter, ptr noundef nonnull align 8 dereferenceable(200) %call2)
          to label %while.cond.preheader unwind label %lpad

while.cond.preheader:                             ; preds = %if.end5
  %codepoint.i = getelementptr inbounds i8, ptr %iter, i64 8
  br label %while.cond

while.cond:                                       ; preds = %while.cond.preheader, %_ZNK6icu_7513CollationData7getCE32Ei.exit
  %h.0 = phi i32 [ %xor, %_ZNK6icu_7513CollationData7getCE32Ei.exit ], [ %call, %while.cond.preheader ]
  %call11 = invoke noundef signext i8 @_ZN6icu_7518UnicodeSetIterator4nextEv(ptr noundef nonnull align 8 dereferenceable(64) %iter)
          to label %invoke.cont10 unwind label %lpad9

invoke.cont10:                                    ; preds = %while.cond
  %tobool12.not = icmp eq i8 %call11, 0
  br i1 %tobool12.not, label %while.end, label %land.rhs

land.rhs:                                         ; preds = %invoke.cont10
  %5 = load i32, ptr %codepoint.i, align 8
  %tobool15.not = icmp sgt i32 %5, -1
  br i1 %tobool15.not, label %while.body, label %while.end

while.body:                                       ; preds = %land.rhs
  %6 = load ptr, ptr %data, align 8
  %7 = load ptr, ptr %6, align 8
  %data32.i = getelementptr inbounds i8, ptr %7, i64 16
  %8 = load ptr, ptr %data32.i, align 8
  %cmp.i6 = icmp ult i32 %5, 55296
  br i1 %cmp.i6, label %cond.true.i, label %cond.false.i

cond.true.i:                                      ; preds = %while.body
  %9 = load ptr, ptr %7, align 8
  %shr.i = lshr i32 %5, 5
  %idxprom.i = zext nneg i32 %shr.i to i64
  %arrayidx.i = getelementptr inbounds i16, ptr %9, i64 %idxprom.i
  %10 = load i16, ptr %arrayidx.i, align 2
  %conv.i7 = zext i16 %10 to i32
  %shl.i = shl nuw nsw i32 %conv.i7, 2
  %and.i = and i32 %5, 31
  %add3.i = add nuw nsw i32 %shl.i, %and.i
  br label %_ZNK6icu_7513CollationData7getCE32Ei.exit

cond.false.i:                                     ; preds = %while.body
  %cmp4.i = icmp ult i32 %5, 65536
  br i1 %cmp4.i, label %cond.true5.i, label %cond.false17.i

cond.true5.i:                                     ; preds = %cond.false.i
  %11 = load ptr, ptr %7, align 8
  %cmp8.i = icmp ult i32 %5, 56320
  %cond.i = select i1 %cmp8.i, i32 320, i32 0
  %shr9.i = lshr i32 %5, 5
  %add10.i = add nuw nsw i32 %cond.i, %shr9.i
  %idxprom11.i = zext nneg i32 %add10.i to i64
  %arrayidx12.i = getelementptr inbounds i16, ptr %11, i64 %idxprom11.i
  %12 = load i16, ptr %arrayidx12.i, align 2
  %conv13.i = zext i16 %12 to i32
  %shl14.i = shl nuw nsw i32 %conv13.i, 2
  %and15.i = and i32 %5, 31
  %add16.i = add nuw nsw i32 %shl14.i, %and15.i
  br label %_ZNK6icu_7513CollationData7getCE32Ei.exit

cond.false17.i:                                   ; preds = %cond.false.i
  %cmp18.i = icmp ugt i32 %5, 1114111
  br i1 %cmp18.i, label %_ZNK6icu_7513CollationData7getCE32Ei.exit, label %cond.false20.i

cond.false20.i:                                   ; preds = %cond.false17.i
  %highStart.i = getelementptr inbounds i8, ptr %7, i64 44
  %13 = load i32, ptr %highStart.i, align 4
  %cmp22.not.i = icmp sgt i32 %13, %5
  br i1 %cmp22.not.i, label %cond.false25.i, label %cond.true23.i

cond.true23.i:                                    ; preds = %cond.false20.i
  %highValueIndex.i = getelementptr inbounds i8, ptr %7, i64 48
  %14 = load i32, ptr %highValueIndex.i, align 8
  br label %_ZNK6icu_7513CollationData7getCE32Ei.exit

cond.false25.i:                                   ; preds = %cond.false20.i
  %15 = load ptr, ptr %7, align 8
  %shr30.i = lshr i32 %5, 11
  %16 = zext nneg i32 %shr30.i to i64
  %17 = getelementptr i16, ptr %15, i64 %16
  %arrayidx33.i = getelementptr i8, ptr %17, i64 4160
  %18 = load i16, ptr %arrayidx33.i, align 2
  %conv34.i = zext i16 %18 to i32
  %shr35.i = lshr i32 %5, 5
  %and36.i = and i32 %shr35.i, 63
  %add37.i = add nuw nsw i32 %and36.i, %conv34.i
  %idxprom38.i = zext nneg i32 %add37.i to i64
  %arrayidx39.i = getelementptr inbounds i16, ptr %15, i64 %idxprom38.i
  %19 = load i16, ptr %arrayidx39.i, align 2
  %conv40.i = zext i16 %19 to i32
  %shl41.i = shl nuw nsw i32 %conv40.i, 2
  %and42.i = and i32 %5, 31
  %add43.i = add nuw nsw i32 %shl41.i, %and42.i
  br label %_ZNK6icu_7513CollationData7getCE32Ei.exit

_ZNK6icu_7513CollationData7getCE32Ei.exit:        ; preds = %cond.true.i, %cond.true5.i, %cond.false17.i, %cond.true23.i, %cond.false25.i
  %cond50.i = phi i32 [ %add3.i, %cond.true.i ], [ %add16.i, %cond.true5.i ], [ 128, %cond.false17.i ], [ %14, %cond.true23.i ], [ %add43.i, %cond.false25.i ]
  %idxprom51.i = sext i32 %cond50.i to i64
  %arrayidx52.i = getelementptr inbounds i32, ptr %8, i64 %idxprom51.i
  %20 = load i32, ptr %arrayidx52.i, align 4
  %xor = xor i32 %20, %h.0
  br label %while.cond, !llvm.loop !4

lpad9:                                            ; preds = %while.cond
  %21 = landingpad { ptr, i32 }
          cleanup
  call void @_ZN6icu_7518UnicodeSetIteratorD1Ev(ptr noundef nonnull align 8 dereferenceable(64) %iter) #17
  br label %ehcleanup

while.end:                                        ; preds = %invoke.cont10, %land.rhs
  call void @_ZN6icu_7518UnicodeSetIteratorD1Ev(ptr noundef nonnull align 8 dereferenceable(64) %iter) #17
  br label %cleanup

cleanup:                                          ; preds = %if.end, %while.end
  %retval.0 = phi i32 [ 0, %if.end ], [ %h.0, %while.end ]
  %isnull.i = icmp eq ptr %call2, null
  br i1 %isnull.i, label %return, label %delete.notnull.i

delete.notnull.i:                                 ; preds = %cleanup
  call void @_ZN6icu_7510UnicodeSetD1Ev(ptr noundef nonnull align 8 dereferenceable(200) %call2) #17
  call void @_ZN6icu_757UMemorydlEPv(ptr noundef nonnull %call2) #17
  br label %return

ehcleanup:                                        ; preds = %lpad9, %lpad
  %.pn = phi { ptr, i32 } [ %21, %lpad9 ], [ %4, %lpad ]
  call void @_ZN6icu_7512LocalPointerINS_10UnicodeSetEED2Ev(ptr noundef nonnull align 8 dereferenceable(8) %set) #17
  resume { ptr, i32 } %.pn

return:                                           ; preds = %delete.notnull.i, %cleanup, %entry
  %retval.1 = phi i32 [ %call, %entry ], [ %retval.0, %cleanup ], [ %retval.0, %delete.notnull.i ]
  ret i32 %retval.1
}